; Function Attrs: mustprogress nounwind uwtable
define internal fastcc void @_ZN11max_cliquesIZN3opt10preprocess12prop_mutexesER6vectorINS0_4softELb1EjER8rationalE11neg_literalED2Ev(ptr nocapture noundef nonnull readonly align 8 dereferenceable(56) %this) unnamed_addr #4 align 2 personality ptr @__gxx_personality_v0 {
entry:
  %m_todo = getelementptr inbounds i8, ptr %this, i64 48
  %0 = load ptr, ptr %m_todo, align 8
  %tobool.not.i.i.i = icmp eq ptr %0, null
  br i1 %tobool.not.i.i.i, label %_ZN7svectorIjjED2Ev.exit, label %if.then.i.i.i

if.then.i.i.i:                                    ; preds = %entry
  %add.ptr.i.i.i.i = getelementptr inbounds i8, ptr %0, i64 -8
  invoke void @_ZN6memory10deallocateEPv(ptr noundef nonnull %add.ptr.i.i.i.i)
          to label %_ZN7svectorIjjED2Ev.exit unwind label %terminate.lpad.i.i

terminate.lpad.i.i:                               ; preds = %if.then.i.i.i
  %1 = landingpad { ptr, i32 }
          catch ptr null
  %2 = extractvalue { ptr, i32 } %1, 0
  tail call void @__clang_call_terminate(ptr %2) #19
  unreachable

_ZN7svectorIjjED2Ev.exit:                         ; preds = %entry, %if.then.i.i.i
  %m_seen2 = getelementptr inbounds i8, ptr %this, i64 40
  %3 = load ptr, ptr %m_seen2, align 8
  %tobool.not.i.i.i.i = icmp eq ptr %3, null
  br i1 %tobool.not.i.i.i.i, label %_ZN8uint_setD2Ev.exit, label %if.then.i.i.i.i

if.then.i.i.i.i:                                  ; preds = %_ZN7svectorIjjED2Ev.exit
  %add.ptr.i.i.i.i.i = getelementptr inbounds i8, ptr %3, i64 -8
  invoke void @_ZN6memory10deallocateEPv(ptr noundef nonnull %add.ptr.i.i.i.i.i)
          to label %_ZN8uint_setD2Ev.exit unwind label %terminate.lpad.i.i.i

terminate.lpad.i.i.i:                             ; preds = %if.then.i.i.i.i
  %4 = landingpad { ptr, i32 }
          catch ptr null
  %5 = extractvalue { ptr, i32 } %4, 0
  tail call void @__clang_call_terminate(ptr %5) #19
  unreachable

_ZN8uint_setD2Ev.exit:                            ; preds = %_ZN7svectorIjjED2Ev.exit, %if.then.i.i.i.i
  %m_seen1 = getelementptr inbounds i8, ptr %this, i64 32
  %6 = load ptr, ptr %m_seen1, align 8
  %tobool.not.i.i.i.i1 = icmp eq ptr %6, null
  br i1 %tobool.not.i.i.i.i1, label %arraydestroy.body.preheader, label %if.then.i.i.i.i2

if.then.i.i.i.i2:                                 ; preds = %_ZN8uint_setD2Ev.exit
  %add.ptr.i.i.i.i.i3 = getelementptr inbounds i8, ptr %6, i64 -8
  invoke void @_ZN6memory10deallocateEPv(ptr noundef nonnull %add.ptr.i.i.i.i.i3)
          to label %arraydestroy.body.preheader unwind label %terminate.lpad.i.i.i4

arraydestroy.body.preheader:                      ; preds = %_ZN8uint_setD2Ev.exit, %if.then.i.i.i.i2
  br label %arraydestroy.body

terminate.lpad.i.i.i4:                            ; preds = %if.then.i.i.i.i2
  %7 = landingpad { ptr, i32 }
          catch ptr null
  %8 = extractvalue { ptr, i32 } %7, 0
  tail call void @__clang_call_terminate(ptr %8) #19
  unreachable

arraydestroy.body:                                ; preds = %arraydestroy.body.preheader, %_ZN8uint_setD2Ev.exit10
  %arraydestroy.elementPast.idx = phi i64 [ %arraydestroy.elementPast.add, %_ZN8uint_setD2Ev.exit10 ], [ 32, %arraydestroy.body.preheader ]
  %arraydestroy.elementPast.add = add nsw i64 %arraydestroy.elementPast.idx, -8
  %arraydestroy.element.ptr = getelementptr inbounds i8, ptr %this, i64 %arraydestroy.elementPast.add
  %9 = load ptr, ptr %arraydestroy.element.ptr, align 8
  %tobool.not.i.i.i.i6 = icmp eq ptr %9, null
  br i1 %tobool.not.i.i.i.i6, label %_ZN8uint_setD2Ev.exit10, label %if.then.i.i.i.i7

if.then.i.i.i.i7:                                 ; preds = %arraydestroy.body
  %add.ptr.i.i.i.i.i8 = getelementptr inbounds i8, ptr %9, i64 -8
  invoke void @_ZN6memory10deallocateEPv(ptr noundef nonnull %add.ptr.i.i.i.i.i8)
          to label %_ZN8uint_setD2Ev.exit10 unwind label %terminate.lpad.i.i.i9

terminate.lpad.i.i.i9:                            ; preds = %if.then.i.i.i.i7
  %10 = landingpad { ptr, i32 }
          catch ptr null
  %11 = extractvalue { ptr, i32 } %10, 0
  tail call void @__clang_call_terminate(ptr %11) #19
  unreachable

_ZN8uint_setD2Ev.exit10:                          ; preds = %arraydestroy.body, %if.then.i.i.i.i7
  %arraydestroy.done = icmp eq i64 %arraydestroy.elementPast.add, 16
  br i1 %arraydestroy.done, label %arraydestroy.done2, label %arraydestroy.body

arraydestroy.done2:                               ; preds = %_ZN8uint_setD2Ev.exit10
  %m_tc = getelementptr inbounds i8, ptr %this, i64 8
  %12 = load ptr, ptr %m_tc, align 8
  %tobool.not.i.i = icmp eq ptr %12, null
  br i1 %tobool.not.i.i, label %_ZN6vectorI7svectorIjjELb1EjED2Ev.exit, label %_ZNK6vectorI7svectorIjjELb1EjE4sizeEv.exit.i.i.i

_ZNK6vectorI7svectorIjjELb1EjE4sizeEv.exit.i.i.i: ; preds = %arraydestroy.done2
  %arrayidx.i.i.i.i = getelementptr inbounds i8, ptr %12, i64 -4
  %13 = load i32, ptr %arrayidx.i.i.i.i, align 4
  %cmp.not5.i.i.i.i.i.i = icmp eq i32 %13, 0
  br i1 %cmp.not5.i.i.i.i.i.i, label %_ZN6vectorI7svectorIjjELb1EjE16destroy_elementsEv.exit.i.i, label %for.body.i.i.i.i.i.i

for.body.i.i.i.i.i.i:                             ; preds = %_ZNK6vectorI7svectorIjjELb1EjE4sizeEv.exit.i.i.i, %_ZSt8_DestroyI7svectorIjjEEvPT_.exit.i.i.i.i.i.i
  %__count.addr.07.i.i.i.i.i.i = phi i32 [ %dec.i.i.i.i.i.i, %_ZSt8_DestroyI7svectorIjjEEvPT_.exit.i.i.i.i.i.i ], [ %13, %_ZNK6vectorI7svectorIjjELb1EjE4sizeEv.exit.i.i.i ]
  %__first.addr.06.i.i.i.i.i.i = phi ptr [ %incdec.ptr.i.i.i.i.i.i, %_ZSt8_DestroyI7svectorIjjEEvPT_.exit.i.i.i.i.i.i ], [ %12, %_ZNK6vectorI7svectorIjjELb1EjE4sizeEv.exit.i.i.i ]
  %14 = load ptr, ptr %__first.addr.06.i.i.i.i.i.i, align 8
  %tobool.not.i.i.i.i.i.i.i.i.i.i = icmp eq ptr %14, null
  br i1 %tobool.not.i.i.i.i.i.i.i.i.i.i, label %_ZSt8_DestroyI7svectorIjjEEvPT_.exit.i.i.i.i.i.i, label %if.then.i.i.i.i.i.i.i.i.i.i

if.then.i.i.i.i.i.i.i.i.i.i:                      ; preds = %for.body.i.i.i.i.i.i
  %add.ptr.i.i.i.i.i.i.i.i.i.i.i = getelementptr inbounds i8, ptr %14, i64 -8
  invoke void @_ZN6memory10deallocateEPv(ptr noundef nonnull %add.ptr.i.i.i.i.i.i.i.i.i.i.i)
          to label %_ZSt8_DestroyI7svectorIjjEEvPT_.exit.i.i.i.i.i.i unwind label %terminate.lpad.i.i.i.i.i.i.i.i.i

terminate.lpad.i.i.i.i.i.i.i.i.i:                 ; preds = %if.then.i.i.i.i.i.i.i.i.i.i
  %15 = landingpad { ptr, i32 }
          catch ptr null
  %16 = extractvalue { ptr, i32 } %15, 0
  tail call void @__clang_call_terminate(ptr %16) #19
  unreachable

_ZSt8_DestroyI7svectorIjjEEvPT_.exit.i.i.i.i.i.i: ; preds = %if.then.i.i.i.i.i.i.i.i.i.i, %for.body.i.i.i.i.i.i
  %incdec.ptr.i.i.i.i.i.i = getelementptr inbounds i8, ptr %__first.addr.06.i.i.i.i.i.i, i64 8
  %dec.i.i.i.i.i.i = add i32 %__count.addr.07.i.i.i.i.i.i, -1
  %cmp.not.i.i.i.i.i.i = icmp eq i32 %dec.i.i.i.i.i.i, 0
  br i1 %cmp.not.i.i.i.i.i.i, label %_ZN6vectorI7svectorIjjELb1EjE16destroy_elementsEv.exit.loopexit.i.i, label %for.body.i.i.i.i.i.i, !llvm.loop !23

_ZN6vectorI7svectorIjjELb1EjE16destroy_elementsEv.exit.loopexit.i.i: ; preds = %_ZSt8_DestroyI7svectorIjjEEvPT_.exit.i.i.i.i.i.i
  %.pre.i.i = load ptr, ptr %m_tc, align 8
  br label %_ZN6vectorI7svectorIjjELb1EjE16destroy_elementsEv.exit.i.i

_ZN6vectorI7svectorIjjELb1EjE16destroy_elementsEv.exit.i.i: ; preds = %_ZN6vectorI7svectorIjjELb1EjE16destroy_elementsEv.exit.loopexit.i.i, %_ZNK6vectorI7svectorIjjELb1EjE4sizeEv.exit.i.i.i
  %17 = phi ptr [ %.pre.i.i, %_ZN6vectorI7svectorIjjELb1EjE16destroy_elementsEv.exit.loopexit.i.i ], [ %12, %_ZNK6vectorI7svectorIjjELb1EjE4sizeEv.exit.i.i.i ]
  %add.ptr.i.i.i = getelementptr inbounds i8, ptr %17, i64 -8
  invoke void @_ZN6memory10deallocateEPv(ptr noundef nonnull %add.ptr.i.i.i)
          to label %_ZN6vectorI7svectorIjjELb1EjED2Ev.exit unwind label %terminate.lpad.i

terminate.lpad.i:                                 ; preds = %_ZN6vectorI7svectorIjjELb1EjE16destroy_elementsEv.exit.i.i
  %18 = landingpad { ptr, i32 }
          catch ptr null
  %19 = extractvalue { ptr, i32 } %18, 0
  tail call void @__clang_call_terminate(ptr %19) #19
  unreachable

_ZN6vectorI7svectorIjjELb1EjED2Ev.exit:           ; preds = %arraydestroy.done2, %_ZN6vectorI7svectorIjjELb1EjE16destroy_elementsEv.exit.i.i
  %20 = load ptr, ptr %this, align 8
  %tobool.not.i.i11 = icmp eq ptr %20, null
  br i1 %tobool.not.i.i11, label %_ZN6vectorI7svectorIjjELb1EjED2Ev.exit31, label %_ZNK6vectorI7svectorIjjELb1EjE4sizeEv.exit.i.i.i12

_ZNK6vectorI7svectorIjjELb1EjE4sizeEv.exit.i.i.i12: ; preds = %_ZN6vectorI7svectorIjjELb1EjED2Ev.exit
  %arrayidx.i.i.i.i13 = getelementptr inbounds i8, ptr %20, i64 -4
  %21 = load i32, ptr %arrayidx.i.i.i.i13, align 4
  %cmp.not5.i.i.i.i.i.i14 = icmp eq i32 %21, 0
  br i1 %cmp.not5.i.i.i.i.i.i14, label %_ZN6vectorI7svectorIjjELb1EjE16destroy_elementsEv.exit.i.i28, label %for.body.i.i.i.i.i.i15

for.body.i.i.i.i.i.i15:                           ; preds = %_ZNK6vectorI7svectorIjjELb1EjE4sizeEv.exit.i.i.i12, %_ZSt8_DestroyI7svectorIjjEEvPT_.exit.i.i.i.i.i.i22
  %__count.addr.07.i.i.i.i.i.i16 = phi i32 [ %dec.i.i.i.i.i.i24, %_ZSt8_DestroyI7svectorIjjEEvPT_.exit.i.i.i.i.i.i22 ], [ %21, %_ZNK6vectorI7svectorIjjELb1EjE4sizeEv.exit.i.i.i12 ]
  %__first.addr.06.i.i.i.i.i.i17 = phi ptr [ %incdec.ptr.i.i.i.i.i.i23, %_ZSt8_DestroyI7svectorIjjEEvPT_.exit.i.i.i.i.i.i22 ], [ %20, %_ZNK6vectorI7svectorIjjELb1EjE4sizeEv.exit.i.i.i12 ]
  %22 = load ptr, ptr %__first.addr.06.i.i.i.i.i.i17, align 8
  %tobool.not.i.i.i.i.i.i.i.i.i.i18 = icmp eq ptr %22, null
  br i1 %tobool.not.i.i.i.i.i.i.i.i.i.i18, label %_ZSt8_DestroyI7svectorIjjEEvPT_.exit.i.i.i.i.i.i22, label %if.then.i.i.i.i.i.i.i.i.i.i19

if.then.i.i.i.i.i.i.i.i.i.i19:                    ; preds = %for.body.i.i.i.i.i.i15
  %add.ptr.i.i.i.i.i.i.i.i.i.i.i20 = getelementptr inbounds i8, ptr %22, i64 -8
  invoke void @_ZN6memory10deallocateEPv(ptr noundef nonnull %add.ptr.i.i.i.i.i.i.i.i.i.i.i20)
          to label %_ZSt8_DestroyI7svectorIjjEEvPT_.exit.i.i.i.i.i.i22 unwind label %terminate.lpad.i.i.i.i.i.i.i.i.i21

terminate.lpad.i.i.i.i.i.i.i.i.i21:               ; preds = %if.then.i.i.i.i.i.i.i.i.i.i19
  %23 = landingpad { ptr, i32 }
          catch ptr null
  %24 = extractvalue { ptr, i32 } %23, 0
  tail call void @__clang_call_terminate(ptr %24) #19
  unreachable

_ZSt8_DestroyI7svectorIjjEEvPT_.exit.i.i.i.i.i.i22: ; preds = %if.then.i.i.i.i.i.i.i.i.i.i19, %for.body.i.i.i.i.i.i15
  %incdec.ptr.i.i.i.i.i.i23 = getelementptr inbounds i8, ptr %__first.addr.06.i.i.i.i.i.i17, i64 8
  %dec.i.i.i.i.i.i24 = add i32 %__count.addr.07.i.i.i.i.i.i16, -1
  %cmp.not.i.i.i.i.i.i25 = icmp eq i32 %dec.i.i.i.i.i.i24, 0
  br i1 %cmp.not.i.i.i.i.i.i25, label %_ZN6vectorI7svectorIjjELb1EjE16destroy_elementsEv.exit.loopexit.i.i26, label %for.body.i.i.i.i.i.i15, !llvm.loop !23

_ZN6vectorI7svectorIjjELb1EjE16destroy_elementsEv.exit.loopexit.i.i26: ; preds = %_ZSt8_DestroyI7svectorIjjEEvPT_.exit.i.i.i.i.i.i22
  %.pre.i.i27 = load ptr, ptr %this, align 8
  br label %_ZN6vectorI7svectorIjjELb1EjE16destroy_elementsEv.exit.i.i28

_ZN6vectorI7svectorIjjELb1EjE16destroy_elementsEv.exit.i.i28: ; preds = %_ZN6vectorI7svectorIjjELb1EjE16destroy_elementsEv.exit.loopexit.i.i26, %_ZNK6vectorI7svectorIjjELb1EjE4sizeEv.exit.i.i.i12
  %25 = phi ptr [ %.pre.i.i27, %_ZN6vectorI7svectorIjjELb1EjE16destroy_elementsEv.exit.loopexit.i.i26 ], [ %20, %_ZNK6vectorI7svectorIjjELb1EjE4sizeEv.exit.i.i.i12 ]
  %add.ptr.i.i.i29 = getelementptr inbounds i8, ptr %25, i64 -8
  invoke void @_ZN6memory10deallocateEPv(ptr noundef nonnull %add.ptr.i.i.i29)
          to label %_ZN6vectorI7svectorIjjELb1EjED2Ev.exit31 unwind label %terminate.lpad.i30

terminate.lpad.i30:                               ; preds = %_ZN6vectorI7svectorIjjELb1EjE16destroy_elementsEv.exit.i.i28
  %26 = landingpad { ptr, i32 }
          catch ptr null
  %27 = extractvalue { ptr, i32 } %26, 0
  tail call void @__clang_call_terminate(ptr %27) #19
  unreachable

_ZN6vectorI7svectorIjjELb1EjED2Ev.exit31:         ; preds = %_ZN6vectorI7svectorIjjELb1EjED2Ev.exit, %_ZN6vectorI7svectorIjjELb1EjE16destroy_elementsEv.exit.i.i28
  ret void
}